target datalayout = "e-m:e-p270:32:32-p271:32:32-p272:64:64-i64:64-i128:128-f80:128-n8:16:32:64-S128"
target triple = "x86_64-pc-linux-gnu"

%"class.std::unique_lock" = type <{ ptr, i8, [7 x i8] }>
%"class.boost::fibers::condition_variable_any" = type { %"class.boost::fibers::detail::spinlock_ttas", %"class.boost::fibers::wait_queue" }
%"class.boost::fibers::detail::spinlock_ttas" = type { %"struct.std::atomic" }
%"struct.std::atomic" = type { i32 }
%"class.boost::fibers::wait_queue" = type { %"class.boost::intrusive::slist" }
%"class.boost::intrusive::slist" = type { %"class.boost::intrusive::slist_impl" }
%"class.boost::intrusive::slist_impl" = type { %"struct.boost::intrusive::slist_impl<boost::intrusive::mhtraits<boost::fibers::waker_with_hook, boost::intrusive::slist_member_hook<>, &boost::fibers::waker_with_hook::waker_queue_hook_>, unsigned long, 4, void>::data_t" }
%"struct.boost::intrusive::slist_impl<boost::intrusive::mhtraits<boost::fibers::waker_with_hook, boost::intrusive::slist_member_hook<>, &boost::fibers::waker_with_hook::waker_queue_hook_>, unsigned long, 4, void>::data_t" = type { %"struct.boost::intrusive::slist_impl<boost::intrusive::mhtraits<boost::fibers::waker_with_hook, boost::intrusive::slist_member_hook<>, &boost::fibers::waker_with_hook::waker_queue_hook_>, unsigned long, 4, void>::root_plus_size" }
%"struct.boost::intrusive::slist_impl<boost::intrusive::mhtraits<boost::fibers::waker_with_hook, boost::intrusive::slist_member_hook<>, &boost::fibers::waker_with_hook::waker_queue_hook_>, unsigned long, 4, void>::root_plus_size" = type { %"struct.boost::intrusive::header_holder_plus_last" }
%"struct.boost::intrusive::header_holder_plus_last" = type { %"struct.boost::intrusive::detail::default_header_holder", ptr }
%"struct.boost::intrusive::detail::default_header_holder" = type { %"struct.boost::intrusive::slist_node" }
%"struct.boost::intrusive::slist_node" = type { ptr }

; Function Attrs: mustprogress nounwind uwtable
define linkonce_odr hidden void @_ZNSt6atomicIN5boost6fibers6detail15spinlock_statusEE5storeES3_St12memory_order(ptr noundef nonnull align 4 dereferenceable(4) %0, i32 noundef %1, i32 noundef %2) #4 comdat align 2 {
  %4 = alloca ptr, align 8
  %5 = alloca i32, align 4
  %6 = alloca i32, align 4
  store ptr %0, ptr %4, align 8, !tbaa !3
  store i32 %1, ptr %5, align 4, !tbaa !24
  store i32 %2, ptr %6, align 4, !tbaa !22
  %7 = load ptr, ptr %4, align 8
  %8 = getelementptr inbounds nuw %"struct.std::atomic", ptr %7, i32 0, i32 0
  %9 = load i32, ptr %6, align 4, !tbaa !22
  switch i32 %9, label %10 [
    i32 3, label %12
    i32 5, label %14
  ]

10:                                               ; preds = %3
  %11 = load i32, ptr %5, align 4
  store atomic i32 %11, ptr %8 monotonic, align 4
  br label %16

12:                                               ; preds = %3
  %13 = load i32, ptr %5, align 4
  store atomic i32 %13, ptr %8 release, align 4
  br label %16

14:                                               ; preds = %3
  %15 = load i32, ptr %5, align 4
  store atomic i32 %15, ptr %8 seq_cst, align 4
  br label %16

16:                                               ; preds = %14, %12, %10
  ret void
}

; Function Attrs: mustprogress nounwind uwtable
define linkonce_odr hidden void @_ZN5boost6fibers6detail13spinlock_ttas6unlockEv(ptr noundef nonnull align 4 dereferenceable(4) %0) #4 comdat align 2 {
  %2 = alloca ptr, align 8
  store ptr %0, ptr %2, align 8, !tbaa !3
  %3 = load ptr, ptr %2, align 8
  %4 = getelementptr inbounds nuw %"class.boost::fibers::detail::spinlock_ttas", ptr %3, i32 0, i32 0
  call void @_ZNSt6atomicIN5boost6fibers6detail15spinlock_statusEE5storeES3_St12memory_order(ptr noundef nonnull align 4 dereferenceable(4) %4, i32 noundef 1, i32 noundef 3) #3
  ret void
}

; Function Attrs: mustprogress uwtable
define linkonce_odr hidden void @_ZNSt11unique_lockIN5boost6fibers6detail13spinlock_ttasEE6unlockEv(ptr noundef nonnull align 8 dereferenceable(9) %0) #6 comdat align 2 {
  %2 = alloca ptr, align 8
  store ptr %0, ptr %2, align 8, !tbaa !3
  %3 = load ptr, ptr %2, align 8
  %4 = getelementptr inbounds nuw %"class.std::unique_lock", ptr %3, i32 0, i32 1
  %5 = load i8, ptr %4, align 8, !tbaa !10, !range !11, !noundef !12
  %6 = trunc i8 %5 to i1
  br i1 %6, label %8, label %7

7:                                                ; preds = %1
  call void @_ZSt20__throw_system_errori(i32 noundef 1) #17
  unreachable

8:                                                ; preds = %1
  %9 = getelementptr inbounds nuw %"class.std::unique_lock", ptr %3, i32 0, i32 0
  %10 = load ptr, ptr %9, align 8, !tbaa !7
  %11 = icmp ne ptr %10, null
  br i1 %11, label %12, label %16

12:                                               ; preds = %8
  %13 = getelementptr inbounds nuw %"class.std::unique_lock", ptr %3, i32 0, i32 0
  %14 = load ptr, ptr %13, align 8, !tbaa !7
  call void @_ZN5boost6fibers6detail13spinlock_ttas6unlockEv(ptr noundef nonnull align 4 dereferenceable(4) %14) #3
  %15 = getelementptr inbounds nuw %"class.std::unique_lock", ptr %3, i32 0, i32 1
  store i8 0, ptr %15, align 8, !tbaa !10
  br label %16

16:                                               ; preds = %12, %8
  br label %17

17:                                               ; preds = %16
  ret void
}

; Function Attrs: mustprogress uwtable
define linkonce_odr hidden void @_ZNSt11unique_lockIN5boost6fibers6detail13spinlock_ttasEE4lockEv(ptr noundef nonnull align 8 dereferenceable(9) %0) #6 comdat align 2 {
  %2 = alloca ptr, align 8
  store ptr %0, ptr %2, align 8, !tbaa !3
  %3 = load ptr, ptr %2, align 8
  %4 = getelementptr inbounds nuw %"class.std::unique_lock", ptr %3, i32 0, i32 0
  %5 = load ptr, ptr %4, align 8, !tbaa !7
  %6 = icmp ne ptr %5, null
  br i1 %6, label %8, label %7

7:                                                ; preds = %1
  call void @_ZSt20__throw_system_errori(i32 noundef 1) #17
  unreachable

8:                                                ; preds = %1
  %9 = getelementptr inbounds nuw %"class.std::unique_lock", ptr %3, i32 0, i32 1
  %10 = load i8, ptr %9, align 8, !tbaa !10, !range !11, !noundef !12
  %11 = trunc i8 %10 to i1
  br i1 %11, label %12, label %13

12:                                               ; preds = %8
  call void @_ZSt20__throw_system_errori(i32 noundef 35) #17
  unreachable

13:                                               ; preds = %8
  %14 = getelementptr inbounds nuw %"class.std::unique_lock", ptr %3, i32 0, i32 0
  %15 = load ptr, ptr %14, align 8, !tbaa !7
  call void @_ZN5boost6fibers6detail13spinlock_ttas4lockEv(ptr noundef nonnull align 4 dereferenceable(4) %15) #3
  %16 = getelementptr inbounds nuw %"class.std::unique_lock", ptr %3, i32 0, i32 1
  store i8 1, ptr %16, align 8, !tbaa !10
  br label %17

17:                                               ; preds = %13
  br label %18

18:                                               ; preds = %17
  ret void
}

; Function Attrs: mustprogress nounwind uwtable
define linkonce_odr hidden void @_ZNSt11unique_lockIN5boost6fibers6detail13spinlock_ttasEED2Ev(ptr noundef nonnull align 8 dereferenceable(9) %0) unnamed_addr #4 comdat align 2 personality ptr @__gxx_personality_v0 {
  %2 = alloca ptr, align 8
  store ptr %0, ptr %2, align 8, !tbaa !3
  %3 = load ptr, ptr %2, align 8
  %4 = getelementptr inbounds nuw %"class.std::unique_lock", ptr %3, i32 0, i32 1
  %5 = load i8, ptr %4, align 8, !tbaa !10, !range !11, !noundef !12
  %6 = trunc i8 %5 to i1
  br i1 %6, label %7, label %9

7:                                                ; preds = %1
  invoke void @_ZNSt11unique_lockIN5boost6fibers6detail13spinlock_ttasEE6unlockEv(ptr noundef nonnull align 8 dereferenceable(9) %3)
          to label %8 unwind label %10

8:                                                ; preds = %7
  br label %9

9:                                                ; preds = %8, %1
  ret void

10:                                               ; preds = %7
  %11 = landingpad { ptr, i32 }
          catch ptr null
  %12 = extractvalue { ptr, i32 } %11, 0
  call void @__clang_call_terminate(ptr %12) #16
  unreachable
}

; Function Attrs: mustprogress uwtable
define linkonce_odr hidden void @_ZNSt11unique_lockIN5boost6fibers6detail13spinlock_ttasEEC2ERS3_(ptr noundef nonnull align 8 dereferenceable(9) %0, ptr noundef nonnull align 4 dereferenceable(4) %1) unnamed_addr #6 comdat align 2 {
  %3 = alloca ptr, align 8
  %4 = alloca ptr, align 8
  store ptr %0, ptr %3, align 8, !tbaa !3
  store ptr %1, ptr %4, align 8, !tbaa !3
  %5 = load ptr, ptr %3, align 8
  %6 = getelementptr inbounds nuw %"class.std::unique_lock", ptr %5, i32 0, i32 0
  %7 = load ptr, ptr %4, align 8, !tbaa !3
  store ptr %7, ptr %6, align 8, !tbaa !7
  %8 = getelementptr inbounds nuw %"class.std::unique_lock", ptr %5, i32 0, i32 1
  store i8 0, ptr %8, align 8, !tbaa !10
  call void @_ZNSt11unique_lockIN5boost6fibers6detail13spinlock_ttasEE4lockEv(ptr noundef nonnull align 8 dereferenceable(9) %5)
  %9 = getelementptr inbounds nuw %"class.std::unique_lock", ptr %5, i32 0, i32 1
  store i8 1, ptr %9, align 8, !tbaa !10
  ret void
}

; Function Attrs: mustprogress nounwind uwtable
define void @_ZN5boost6fibers22condition_variable_any10notify_oneEv(ptr noundef nonnull align 8 dereferenceable(24) %0) #4 align 2 personality ptr @__gxx_personality_v0 {
  %2 = alloca ptr, align 8
  %3 = alloca %"class.std::unique_lock", align 8
  store ptr %0, ptr %2, align 8, !tbaa !3
  %4 = load ptr, ptr %2, align 8
  call void @llvm.lifetime.start.p0(i64 16, ptr %3) #3
  %5 = getelementptr inbounds nuw %"class.boost::fibers::condition_variable_any", ptr %4, i32 0, i32 0
  invoke void @_ZNSt11unique_lockIN5boost6fibers6detail13spinlock_ttasEEC2ERS3_(ptr noundef nonnull align 8 dereferenceable(9) %3, ptr noundef nonnull align 4 dereferenceable(4) %5)
          to label %6 unwind label %9

6:                                                ; preds = %1
  %7 = getelementptr inbounds nuw %"class.boost::fibers::condition_variable_any", ptr %4, i32 0, i32 1
  invoke void @_ZN5boost6fibers10wait_queue10notify_oneEv(ptr noundef nonnull align 8 dereferenceable(16) %7)
          to label %8 unwind label %9

8:                                                ; preds = %6
  call void @_ZNSt11unique_lockIN5boost6fibers6detail13spinlock_ttasEED2Ev(ptr noundef nonnull align 8 dereferenceable(9) %3) #3
  call void @llvm.lifetime.end.p0(i64 16, ptr %3) #3
  ret void

9:                                                ; preds = %6, %1
  %10 = landingpad { ptr, i32 }
          catch ptr null
  %11 = extractvalue { ptr, i32 } %10, 0
  call void @__clang_call_terminate(ptr %11) #16
  unreachable
}